target datalayout = "e-m:e-p270:32:32-p271:32:32-p272:64:64-i64:64-i128:128-f80:128-n8:16:32:64-S128"
target triple = "x86_64-pc-linux-gnu"

%struct.Gia_Obj_t_ = type <{ i64, i32 }>
%struct.Gia_Man_t_ = type { ptr, ptr, i32, i32, i32, i32, ptr, ptr, i32, i32, i32, ptr, ptr, %struct.Vec_Int_t_, %struct.Vec_Int_t_, i32, i32, i32, %struct.Vec_Int_t_, ptr, ptr, ptr, i32, i32, i32, i32, ptr, ptr, ptr, ptr, ptr, i32, i32, ptr, i32, ptr, ptr, ptr, ptr, ptr, ptr, ptr, ptr, ptr, ptr, ptr, ptr, ptr, ptr, ptr, ptr, ptr, ptr, %struct.Vec_Int_t_, %struct.Vec_Int_t_, ptr, ptr, ptr, ptr, ptr, ptr, ptr, ptr, ptr, ptr, ptr, ptr, ptr, ptr, ptr, ptr, ptr, ptr, ptr, ptr, ptr, i32, float, float, ptr, ptr, i32, ptr, ptr, ptr, ptr, ptr, ptr, ptr, ptr, ptr, ptr, ptr, ptr, ptr, ptr, ptr, i64, i64, ptr, ptr, i32, i32, i32, i32, i32, i32, i32, i32, i32, i32, i32, i32, ptr, ptr, ptr, ptr, ptr, ptr, ptr, ptr, i32, i32, i32, ptr, i32, i32, ptr, ptr, ptr, ptr, ptr, ptr, i32, i32, ptr, %struct.Vec_Int_t_, %struct.Vec_Int_t_, %struct.Vec_Int_t_, ptr, ptr, ptr, i32, i32, i32, i32, ptr, ptr, ptr, ptr, ptr }
%struct.Vec_Int_t_ = type { i32, i32, ptr }

; Function Attrs: inlinehint nounwind uwtable
define internal i32 @Gia_ObjRefDecId(ptr noundef %0, i32 noundef %1) #4 {
  %3 = alloca ptr, align 8
  %4 = alloca i32, align 4
  store ptr %0, ptr %3, align 8, !tbaa !13
  store i32 %1, ptr %4, align 4, !tbaa !12
  %5 = load ptr, ptr %3, align 8, !tbaa !13
  %6 = getelementptr inbounds nuw %struct.Gia_Man_t_, ptr %5, i32 0, i32 19
  %7 = load ptr, ptr %6, align 8, !tbaa !60
  %8 = load i32, ptr %4, align 4, !tbaa !12
  %9 = sext i32 %8 to i64
  %10 = getelementptr inbounds i32, ptr %7, i64 %9
  %11 = load i32, ptr %10, align 4, !tbaa !12
  %12 = add nsw i32 %11, -1
  store i32 %12, ptr %10, align 4, !tbaa !12
  ret i32 %12
}

; Function Attrs: inlinehint nounwind uwtable
define internal i32 @Gia_ObjId(ptr noundef %0, ptr noundef %1) #4 {
  %3 = alloca ptr, align 8
  %4 = alloca ptr, align 8
  store ptr %0, ptr %3, align 8, !tbaa !13
  store ptr %1, ptr %4, align 8, !tbaa !51
  %5 = load ptr, ptr %4, align 8, !tbaa !51
  %6 = load ptr, ptr %3, align 8, !tbaa !13
  %7 = getelementptr inbounds nuw %struct.Gia_Man_t_, ptr %6, i32 0, i32 6
  %8 = load ptr, ptr %7, align 8, !tbaa !66
  %9 = ptrtoint ptr %5 to i64
  %10 = ptrtoint ptr %8 to i64
  %11 = sub i64 %9, %10
  %12 = sdiv exact i64 %11, 12
  %13 = trunc i64 %12 to i32
  ret i32 %13
}

; Function Attrs: inlinehint nounwind uwtable
define internal i32 @Gia_ObjRefDec(ptr noundef %0, ptr noundef %1) #4 {
  %3 = alloca ptr, align 8
  %4 = alloca ptr, align 8
  store ptr %0, ptr %3, align 8, !tbaa !13
  store ptr %1, ptr %4, align 8, !tbaa !51
  %5 = load ptr, ptr %3, align 8, !tbaa !13
  %6 = load ptr, ptr %3, align 8, !tbaa !13
  %7 = load ptr, ptr %4, align 8, !tbaa !51
  %8 = call i32 @Gia_ObjId(ptr noundef %6, ptr noundef %7)
  %9 = call i32 @Gia_ObjRefDecId(ptr noundef %5, i32 noundef %8)
  ret i32 %9
}

; Function Attrs: inlinehint nounwind uwtable
define internal ptr @Gia_Regular(ptr noundef %0) #4 {
  %2 = alloca ptr, align 8
  store ptr %0, ptr %2, align 8, !tbaa !51
  %3 = load ptr, ptr %2, align 8, !tbaa !51
  %4 = ptrtoint ptr %3 to i64
  %5 = and i64 %4, -2
  %6 = inttoptr i64 %5 to ptr
  ret ptr %6
}

; Function Attrs: inlinehint nounwind uwtable
define internal i32 @Gia_ObjIsCi(ptr noundef %0) #4 {
  %2 = alloca ptr, align 8
  store ptr %0, ptr %2, align 8, !tbaa !51
  %3 = load ptr, ptr %2, align 8, !tbaa !51
  %4 = load i64, ptr %3, align 4
  %5 = lshr i64 %4, 31
  %6 = and i64 %5, 1
  %7 = trunc i64 %6 to i32
  %8 = icmp ne i32 %7, 0
  br i1 %8, label %9, label %15

9:                                                ; preds = %1
  %10 = load ptr, ptr %2, align 8, !tbaa !51
  %11 = load i64, ptr %10, align 4
  %12 = and i64 %11, 536870911
  %13 = trunc i64 %12 to i32
  %14 = icmp eq i32 %13, 536870911
  br label %15

15:                                               ; preds = %9, %1
  %16 = phi i1 [ false, %1 ], [ %14, %9 ]
  %17 = zext i1 %16 to i32
  ret i32 %17
}

; Function Attrs: inlinehint nounwind uwtable
define internal ptr @Gia_ObjFanin1(ptr noundef %0) #4 {
  %2 = alloca ptr, align 8
  store ptr %0, ptr %2, align 8, !tbaa !51
  %3 = load ptr, ptr %2, align 8, !tbaa !51
  %4 = load ptr, ptr %2, align 8, !tbaa !51
  %5 = load i64, ptr %4, align 4
  %6 = lshr i64 %5, 32
  %7 = and i64 %6, 536870911
  %8 = trunc i64 %7 to i32
  %9 = sext i32 %8 to i64
  %10 = sub i64 0, %9
  %11 = getelementptr inbounds %struct.Gia_Obj_t_, ptr %3, i64 %10
  ret ptr %11
}

; Function Attrs: inlinehint nounwind uwtable
define internal ptr @Gia_ObjFanin0(ptr noundef %0) #4 {
  %2 = alloca ptr, align 8
  store ptr %0, ptr %2, align 8, !tbaa !51
  %3 = load ptr, ptr %2, align 8, !tbaa !51
  %4 = load ptr, ptr %2, align 8, !tbaa !51
  %5 = load i64, ptr %4, align 4
  %6 = and i64 %5, 536870911
  %7 = trunc i64 %6 to i32
  %8 = sext i32 %7 to i64
  %9 = sub i64 0, %8
  %10 = getelementptr inbounds %struct.Gia_Obj_t_, ptr %3, i64 %9
  ret ptr %10
}

; Function Attrs: inlinehint nounwind uwtable
define internal i32 @Gia_ObjIsAnd(ptr noundef %0) #4 {
  %2 = alloca ptr, align 8
  store ptr %0, ptr %2, align 8, !tbaa !51
  %3 = load ptr, ptr %2, align 8, !tbaa !51
  %4 = load i64, ptr %3, align 4
  %5 = lshr i64 %4, 31
  %6 = and i64 %5, 1
  %7 = trunc i64 %6 to i32
  %8 = icmp ne i32 %7, 0
  br i1 %8, label %15, label %9

9:                                                ; preds = %1
  %10 = load ptr, ptr %2, align 8, !tbaa !51
  %11 = load i64, ptr %10, align 4
  %12 = and i64 %11, 536870911
  %13 = trunc i64 %12 to i32
  %14 = icmp ne i32 %13, 536870911
  br label %15

15:                                               ; preds = %9, %1
  %16 = phi i1 [ false, %1 ], [ %14, %9 ]
  %17 = zext i1 %16 to i32
  ret i32 %17
}

; Function Attrs: inlinehint nounwind uwtable
define internal ptr @Gia_ManObj(ptr noundef %0, i32 noundef %1) #4 {
  %3 = alloca ptr, align 8
  %4 = alloca i32, align 4
  store ptr %0, ptr %3, align 8, !tbaa !13
  store i32 %1, ptr %4, align 4, !tbaa !12
  %5 = load ptr, ptr %3, align 8, !tbaa !13
  %6 = getelementptr inbounds nuw %struct.Gia_Man_t_, ptr %5, i32 0, i32 6
  %7 = load ptr, ptr %6, align 8, !tbaa !66
  %8 = load i32, ptr %4, align 4, !tbaa !12
  %9 = sext i32 %8 to i64
  %10 = getelementptr inbounds %struct.Gia_Obj_t_, ptr %7, i64 %9
  ret ptr %10
}

; Function Attrs: nounwind uwtable
define void @Emb_ManCreateRefsSpecial(ptr noundef %0) #0 {
  %2 = alloca ptr, align 8
  %3 = alloca ptr, align 8
  %4 = alloca ptr, align 8
  %5 = alloca ptr, align 8
  %6 = alloca ptr, align 8
  %7 = alloca ptr, align 8
  %8 = alloca ptr, align 8
  %9 = alloca i32, align 4
  store ptr %0, ptr %2, align 8, !tbaa !13
  call void @llvm.lifetime.start.p0(i64 8, ptr %3) #12
  call void @llvm.lifetime.start.p0(i64 8, ptr %4) #12
  call void @llvm.lifetime.start.p0(i64 8, ptr %5) #12
  call void @llvm.lifetime.start.p0(i64 8, ptr %6) #12
  call void @llvm.lifetime.start.p0(i64 8, ptr %7) #12
  call void @llvm.lifetime.start.p0(i64 8, ptr %8) #12
  call void @llvm.lifetime.start.p0(i64 4, ptr %9) #12
  %10 = load ptr, ptr %2, align 8, !tbaa !13
  call void @Gia_ManCleanMark0(ptr noundef %10)
  %11 = load ptr, ptr %2, align 8, !tbaa !13
  call void @Gia_ManCreateRefs(ptr noundef %11)
  store i32 0, ptr %9, align 4, !tbaa !12
  br label %12

12:                                               ; preds = %93, %1
  %13 = load i32, ptr %9, align 4, !tbaa !12
  %14 = load ptr, ptr %2, align 8, !tbaa !13
  %15 = getelementptr inbounds nuw %struct.Gia_Man_t_, ptr %14, i32 0, i32 4
  %16 = load i32, ptr %15, align 8, !tbaa !54
  %17 = icmp slt i32 %13, %16
  br i1 %17, label %18, label %23

18:                                               ; preds = %12
  %19 = load ptr, ptr %2, align 8, !tbaa !13
  %20 = load i32, ptr %9, align 4, !tbaa !12
  %21 = call ptr @Gia_ManObj(ptr noundef %19, i32 noundef %20)
  store ptr %21, ptr %3, align 8, !tbaa !51
  %22 = icmp ne ptr %21, null
  br label %23

23:                                               ; preds = %18, %12
  %24 = phi i1 [ false, %12 ], [ %22, %18 ]
  br i1 %24, label %25, label %96

25:                                               ; preds = %23
  %26 = load ptr, ptr %3, align 8, !tbaa !51
  %27 = call i32 @Gia_ObjIsAnd(ptr noundef %26)
  %28 = icmp ne i32 %27, 0
  br i1 %28, label %30, label %29

29:                                               ; preds = %25
  br label %92

30:                                               ; preds = %25
  %31 = load ptr, ptr %3, align 8, !tbaa !51
  %32 = call ptr @Gia_ObjFanin0(ptr noundef %31)
  store ptr %32, ptr %4, align 8, !tbaa !51
  %33 = load ptr, ptr %3, align 8, !tbaa !51
  %34 = call ptr @Gia_ObjFanin1(ptr noundef %33)
  store ptr %34, ptr %5, align 8, !tbaa !51
  %35 = load ptr, ptr %4, align 8, !tbaa !51
  %36 = call i32 @Gia_ObjIsCi(ptr noundef %35)
  %37 = icmp ne i32 %36, 0
  br i1 %37, label %56, label %38

38:                                               ; preds = %30
  %39 = load ptr, ptr %4, align 8, !tbaa !51
  %40 = load i64, ptr %39, align 4
  %41 = lshr i64 %40, 30
  %42 = and i64 %41, 1
  %43 = trunc i64 %42 to i32
  %44 = icmp ne i32 %43, 0
  br i1 %44, label %56, label %45

45:                                               ; preds = %38
  %46 = load ptr, ptr %5, align 8, !tbaa !51
  %47 = call i32 @Gia_ObjIsCi(ptr noundef %46)
  %48 = icmp ne i32 %47, 0
  br i1 %48, label %56, label %49

49:                                               ; preds = %45
  %50 = load ptr, ptr %5, align 8, !tbaa !51
  %51 = load i64, ptr %50, align 4
  %52 = lshr i64 %51, 30
  %53 = and i64 %52, 1
  %54 = trunc i64 %53 to i32
  %55 = icmp ne i32 %54, 0
  br i1 %55, label %56, label %57

56:                                               ; preds = %49, %45, %38, %30
  br label %93

57:                                               ; preds = %49
  %58 = load ptr, ptr %3, align 8, !tbaa !51
  %59 = call i32 @Gia_ObjIsMuxType(ptr noundef %58)
  %60 = icmp ne i32 %59, 0
  br i1 %60, label %62, label %61

61:                                               ; preds = %57
  br label %93

62:                                               ; preds = %57
  %63 = load ptr, ptr %3, align 8, !tbaa !51
  %64 = load i64, ptr %63, align 4
  %65 = and i64 %64, -1073741825
  %66 = or i64 %65, 1073741824
  store i64 %66, ptr %63, align 4
  %67 = load ptr, ptr %4, align 8, !tbaa !51
  %68 = load i64, ptr %67, align 4
  %69 = and i64 %68, -1073741825
  %70 = or i64 %69, 1073741824
  store i64 %70, ptr %67, align 4
  %71 = load ptr, ptr %5, align 8, !tbaa !51
  %72 = load i64, ptr %71, align 4
  %73 = and i64 %72, -1073741825
  %74 = or i64 %73, 1073741824
  store i64 %74, ptr %71, align 4
  %75 = load ptr, ptr %3, align 8, !tbaa !51
  %76 = call ptr @Gia_ObjRecognizeMux(ptr noundef %75, ptr noundef %8, ptr noundef %7)
  store ptr %76, ptr %6, align 8, !tbaa !51
  %77 = load ptr, ptr %2, align 8, !tbaa !13
  %78 = load ptr, ptr %6, align 8, !tbaa !51
  %79 = call ptr @Gia_Regular(ptr noundef %78)
  %80 = call i32 @Gia_ObjRefDec(ptr noundef %77, ptr noundef %79)
  %81 = load ptr, ptr %7, align 8, !tbaa !51
  %82 = call ptr @Gia_Regular(ptr noundef %81)
  %83 = load ptr, ptr %8, align 8, !tbaa !51
  %84 = call ptr @Gia_Regular(ptr noundef %83)
  %85 = icmp eq ptr %82, %84
  br i1 %85, label %86, label %91

86:                                               ; preds = %62
  %87 = load ptr, ptr %2, align 8, !tbaa !13
  %88 = load ptr, ptr %7, align 8, !tbaa !51
  %89 = call ptr @Gia_Regular(ptr noundef %88)
  %90 = call i32 @Gia_ObjRefDec(ptr noundef %87, ptr noundef %89)
  br label %91

91:                                               ; preds = %86, %62
  br label %92

92:                                               ; preds = %91, %29
  br label %93

93:                                               ; preds = %92, %61, %56
  %94 = load i32, ptr %9, align 4, !tbaa !12
  %95 = add nsw i32 %94, 1
  store i32 %95, ptr %9, align 4, !tbaa !12
  br label %12, !llvm.loop !68

96:                                               ; preds = %23
  store i32 0, ptr %9, align 4, !tbaa !12
  br label %97

97:                                               ; preds = %117, %96
  %98 = load i32, ptr %9, align 4, !tbaa !12
  %99 = load ptr, ptr %2, align 8, !tbaa !13
  %100 = getelementptr inbounds nuw %struct.Gia_Man_t_, ptr %99, i32 0, i32 4
  %101 = load i32, ptr %100, align 8, !tbaa !54
  %102 = icmp slt i32 %98, %101
  br i1 %102, label %103, label %108

103:                                              ; preds = %97
  %104 = load ptr, ptr %2, align 8, !tbaa !13
  %105 = load i32, ptr %9, align 4, !tbaa !12
  %106 = call ptr @Gia_ManObj(ptr noundef %104, i32 noundef %105)
  store ptr %106, ptr %3, align 8, !tbaa !51
  %107 = icmp ne ptr %106, null
  br label %108

108:                                              ; preds = %103, %97
  %109 = phi i1 [ false, %97 ], [ %107, %103 ]
  br i1 %109, label %110, label %120

110:                                              ; preds = %108
  %111 = load ptr, ptr %3, align 8, !tbaa !51
  %112 = call i32 @Gia_ObjIsAnd(ptr noundef %111)
  %113 = icmp ne i32 %112, 0
  br i1 %113, label %115, label %114

114:                                              ; preds = %110
  br label %116

115:                                              ; preds = %110
  br label %116

116:                                              ; preds = %115, %114
  br label %117

117:                                              ; preds = %116
  %118 = load i32, ptr %9, align 4, !tbaa !12
  %119 = add nsw i32 %118, 1
  store i32 %119, ptr %9, align 4, !tbaa !12
  br label %97, !llvm.loop !69

120:                                              ; preds = %108
  %121 = load ptr, ptr %2, align 8, !tbaa !13
  call void @Gia_ManCleanMark0(ptr noundef %121)
  call void @llvm.lifetime.end.p0(i64 4, ptr %9) #12
  call void @llvm.lifetime.end.p0(i64 8, ptr %8) #12
  call void @llvm.lifetime.end.p0(i64 8, ptr %7) #12
  call void @llvm.lifetime.end.p0(i64 8, ptr %6) #12
  call void @llvm.lifetime.end.p0(i64 8, ptr %5) #12
  call void @llvm.lifetime.end.p0(i64 8, ptr %4) #12
  call void @llvm.lifetime.end.p0(i64 8, ptr %3) #12
  ret void
}