; Function Attrs: nounwind uwtable
define void @Emb_ManCreateRefsSpecial(ptr noundef %0) local_unnamed_addr #1 {
  %2 = alloca ptr, align 8
  %3 = alloca ptr, align 8
  call void @llvm.lifetime.start.p0(i64 8, ptr nonnull %2) #27
  call void @llvm.lifetime.start.p0(i64 8, ptr nonnull %3) #27
  tail call void @Gia_ManCleanMark0(ptr noundef %0) #27
  tail call void @Gia_ManCreateRefs(ptr noundef %0) #27
  %4 = getelementptr i8, ptr %0, i64 32
  %5 = getelementptr inbounds nuw i8, ptr %0, i64 24
  %6 = load i32, ptr %5, align 8, !tbaa !45
  %7 = icmp sgt i32 %6, 0
  br i1 %7, label %.lr.ph, label %.critedge2

.lr.ph:                                           ; preds = %1
  %8 = getelementptr i8, ptr %0, i64 144
  br label %9

9:                                                ; preds = %.lr.ph, %60
  %indvars.iv = phi i64 [ 0, %.lr.ph ], [ %indvars.iv.next, %60 ]
  %.val39 = load ptr, ptr %4, align 8, !tbaa !48
  %10 = getelementptr inbounds nuw %struct.Gia_Obj_t_, ptr %.val39, i64 %indvars.iv
  %.not = icmp eq ptr %.val39, null
  br i1 %.not, label %.critedge2, label %11

11:                                               ; preds = %9
  %.val43 = load i64, ptr %10, align 4
  %12 = and i64 %.val43, 2147483648
  %.not.i = icmp ne i64 %12, 0
  %13 = and i64 %.val43, 536870911
  %14 = icmp eq i64 %13, 536870911
  %narrow.i.not = or i1 %.not.i, %14
  br i1 %narrow.i.not, label %60, label %15

15:                                               ; preds = %11
  %16 = sub nsw i64 0, %13
  %17 = getelementptr inbounds %struct.Gia_Obj_t_, ptr %10, i64 %16
  %18 = lshr i64 %.val43, 32
  %19 = and i64 %18, 536870911
  %20 = sub nsw i64 0, %19
  %21 = getelementptr inbounds %struct.Gia_Obj_t_, ptr %10, i64 %20
  %.val40 = load i64, ptr %17, align 4
  %22 = and i64 %.val40, 2684354559
  %narrow.i48 = icmp ne i64 %22, 2684354559
  %23 = and i64 %.val40, 1073741824
  %.not35 = icmp eq i64 %23, 0
  %or.cond = and i1 %narrow.i48, %.not35
  br i1 %or.cond, label %24, label %60

24:                                               ; preds = %15
  %.val41 = load i64, ptr %21, align 4
  %25 = and i64 %.val41, 2684354559
  %narrow.i49 = icmp ne i64 %25, 2684354559
  %26 = and i64 %.val41, 1073741824
  %.not37 = icmp eq i64 %26, 0
  %or.cond53 = and i1 %narrow.i49, %.not37
  br i1 %or.cond53, label %27, label %60

27:                                               ; preds = %24
  %28 = call i32 @Gia_ObjIsMuxType(ptr noundef nonnull %10) #27
  %.not38 = icmp eq i32 %28, 0
  br i1 %.not38, label %60, label %29

29:                                               ; preds = %27
  %30 = load i64, ptr %10, align 4
  %31 = or i64 %30, 1073741824
  store i64 %31, ptr %10, align 4
  %32 = load i64, ptr %17, align 4
  %33 = or i64 %32, 1073741824
  store i64 %33, ptr %17, align 4
  %34 = load i64, ptr %21, align 4
  %35 = or i64 %34, 1073741824
  store i64 %35, ptr %21, align 4
  %36 = call ptr @Gia_ObjRecognizeMux(ptr noundef nonnull %10, ptr noundef nonnull %3, ptr noundef nonnull %2) #27
  %37 = ptrtoint ptr %36 to i64
  %38 = and i64 %37, -2
  %.val44 = load ptr, ptr %4, align 8, !tbaa !48
  %.val45 = load ptr, ptr %8, align 8, !tbaa !51
  %39 = ptrtoint ptr %.val44 to i64
  %40 = sub i64 %38, %39
  %41 = sdiv exact i64 %40, 12
  %sext.i = shl i64 %41, 32
  %42 = ashr exact i64 %sext.i, 30
  %43 = getelementptr inbounds i8, ptr %.val45, i64 %42
  %44 = load i32, ptr %43, align 4, !tbaa !9
  %45 = add nsw i32 %44, -1
  store i32 %45, ptr %43, align 4, !tbaa !9
  %46 = load ptr, ptr %2, align 8, !tbaa !61
  %47 = ptrtoint ptr %46 to i64
  %48 = and i64 %47, -2
  %49 = load ptr, ptr %3, align 8, !tbaa !61
  %50 = ptrtoint ptr %49 to i64
  %51 = and i64 %50, -2
  %52 = icmp eq i64 %48, %51
  br i1 %52, label %53, label %60

53:                                               ; preds = %29
  %54 = sub i64 %48, %39
  %55 = sdiv exact i64 %54, 12
  %sext.i50 = shl i64 %55, 32
  %56 = ashr exact i64 %sext.i50, 30
  %57 = getelementptr inbounds i8, ptr %.val45, i64 %56
  %58 = load i32, ptr %57, align 4, !tbaa !9
  %59 = add nsw i32 %58, -1
  store i32 %59, ptr %57, align 4, !tbaa !9
  br label %60

60:                                               ; preds = %11, %53, %29, %27, %15, %24
  %indvars.iv.next = add nuw nsw i64 %indvars.iv, 1
  %61 = load i32, ptr %5, align 8, !tbaa !45
  %62 = sext i32 %61 to i64
  %63 = icmp slt i64 %indvars.iv.next, %62
  br i1 %63, label %9, label %.critedge2, !llvm.loop !62

.critedge2:                                       ; preds = %60, %9, %1
  call void @Gia_ManCleanMark0(ptr noundef nonnull %0) #27
  call void @llvm.lifetime.end.p0(i64 8, ptr nonnull %3) #27
  call void @llvm.lifetime.end.p0(i64 8, ptr nonnull %2) #27
  ret void
}